target datalayout = "e-m:e-p270:32:32-p271:32:32-p272:64:64-i64:64-i128:128-f80:128-n8:16:32:64-S128"
target triple = "x86_64-pc-linux-gnu"

%"class.cvc5::internal::FatalStream" = type { i8 }

@.str.10 = private unnamed_addr constant [130 x i8] c"generated/home/dtcxzyw/WorkSpace/Projects/compilers/llvm-opt-benchmark/bench/cvc5/cvc5/src/theory/arith/rewriter/rewrite_atom.cpp\00", align 1
@.str.11 = private unnamed_addr constant [26 x i8] c"Unreachable code reached \00", align 1

; Function Attrs: mustprogress uwtable
define internal noundef zeroext i1 @_ZN4cvc58internal6theory5arith8rewriter12_GLOBAL__N_116evaluateRelationINS0_19RealAlgebraicNumberEEEbNS0_4kind6Kind_tERKT_SB_(i32 noundef %0, ptr noundef nonnull align 8 dereferenceable(32) %1, ptr noundef nonnull align 8 dereferenceable(32) %2) #4 personality ptr @__gxx_personality_v0 {
  %4 = alloca i1, align 1
  %5 = alloca i32, align 4
  %6 = alloca ptr, align 8
  %7 = alloca ptr, align 8
  %8 = alloca %"class.cvc5::internal::FatalStream", align 1
  %9 = alloca ptr, align 8
  %10 = alloca i32, align 4
  store i32 %0, ptr %5, align 4, !tbaa !3
  store ptr %1, ptr %6, align 8, !tbaa !14
  store ptr %2, ptr %7, align 8, !tbaa !14
  %11 = load i32, ptr %5, align 4, !tbaa !3
  switch i32 %11, label %36 [
    i32 75, label %12
    i32 76, label %16
    i32 5, label %20
    i32 6, label %24
    i32 78, label %28
    i32 77, label %32
  ]

12:                                               ; preds = %3
  %13 = load ptr, ptr %6, align 8, !tbaa !14
  %14 = load ptr, ptr %7, align 8, !tbaa !14
  %15 = call noundef zeroext i1 @_ZNK4cvc58internal19RealAlgebraicNumberltERKS1_(ptr noundef nonnull align 8 dereferenceable(32) %13, ptr noundef nonnull align 8 dereferenceable(32) %14)
  store i1 %15, ptr %4, align 1
  br label %46

16:                                               ; preds = %3
  %17 = load ptr, ptr %6, align 8, !tbaa !14
  %18 = load ptr, ptr %7, align 8, !tbaa !14
  %19 = call noundef zeroext i1 @_ZNK4cvc58internal19RealAlgebraicNumberleERKS1_(ptr noundef nonnull align 8 dereferenceable(32) %17, ptr noundef nonnull align 8 dereferenceable(32) %18)
  store i1 %19, ptr %4, align 1
  br label %46

20:                                               ; preds = %3
  %21 = load ptr, ptr %6, align 8, !tbaa !14
  %22 = load ptr, ptr %7, align 8, !tbaa !14
  %23 = call noundef zeroext i1 @_ZNK4cvc58internal19RealAlgebraicNumbereqERKS1_(ptr noundef nonnull align 8 dereferenceable(32) %21, ptr noundef nonnull align 8 dereferenceable(32) %22)
  store i1 %23, ptr %4, align 1
  br label %46

24:                                               ; preds = %3
  %25 = load ptr, ptr %6, align 8, !tbaa !14
  %26 = load ptr, ptr %7, align 8, !tbaa !14
  %27 = call noundef zeroext i1 @_ZNK4cvc58internal19RealAlgebraicNumberneERKS1_(ptr noundef nonnull align 8 dereferenceable(32) %25, ptr noundef nonnull align 8 dereferenceable(32) %26)
  store i1 %27, ptr %4, align 1
  br label %46

28:                                               ; preds = %3
  %29 = load ptr, ptr %6, align 8, !tbaa !14
  %30 = load ptr, ptr %7, align 8, !tbaa !14
  %31 = call noundef zeroext i1 @_ZNK4cvc58internal19RealAlgebraicNumbergeERKS1_(ptr noundef nonnull align 8 dereferenceable(32) %29, ptr noundef nonnull align 8 dereferenceable(32) %30)
  store i1 %31, ptr %4, align 1
  br label %46

32:                                               ; preds = %3
  %33 = load ptr, ptr %6, align 8, !tbaa !14
  %34 = load ptr, ptr %7, align 8, !tbaa !14
  %35 = call noundef zeroext i1 @_ZNK4cvc58internal19RealAlgebraicNumbergtERKS1_(ptr noundef nonnull align 8 dereferenceable(32) %33, ptr noundef nonnull align 8 dereferenceable(32) %34)
  store i1 %35, ptr %4, align 1
  br label %46

36:                                               ; preds = %3
  call void @llvm.lifetime.start.p0(i64 1, ptr %8) #3
  call void @_ZN4cvc58internal11FatalStreamC1EPKcS3_i(ptr noundef nonnull align 1 dereferenceable(1) %8, ptr noundef @__PRETTY_FUNCTION__._ZN4cvc58internal6theory5arith8rewriter12_GLOBAL__N_116evaluateRelationINS0_19RealAlgebraicNumberEEEbNS0_4kind6Kind_tERKT_SB_, ptr noundef @.str.10, i32 noundef 43)
  %37 = invoke noundef nonnull align 8 dereferenceable(8) ptr @_ZN4cvc58internal11FatalStream6streamEv(ptr noundef nonnull align 1 dereferenceable(1) %8)
          to label %38 unwind label %41

38:                                               ; preds = %36
  %39 = invoke noundef nonnull align 8 dereferenceable(8) ptr @_ZStlsISt11char_traitsIcEERSt13basic_ostreamIcT_ES5_PKc(ptr noundef nonnull align 8 dereferenceable(8) %37, ptr noundef @.str.11)
          to label %40 unwind label %41

40:                                               ; preds = %38
  call void @_ZN4cvc58internal11FatalStreamD1Ev(ptr noundef nonnull align 1 dereferenceable(1) %8) #17
  unreachable

41:                                               ; preds = %38, %36
  %42 = landingpad { ptr, i32 }
          cleanup
  %43 = extractvalue { ptr, i32 } %42, 0
  store ptr %43, ptr %9, align 8
  %44 = extractvalue { ptr, i32 } %42, 1
  store i32 %44, ptr %10, align 4
  call void @_ZN4cvc58internal11FatalStreamD1Ev(ptr noundef nonnull align 1 dereferenceable(1) %8) #17
  unreachable

45:                                               ; No predecessors!
  call void @llvm.lifetime.end.p0(i64 1, ptr %8) #3
  br label %48

46:                                               ; preds = %32, %28, %24, %20, %16, %12
  %47 = load i1, ptr %4, align 1
  ret i1 %47

48:                                               ; preds = %45
  %49 = load ptr, ptr %9, align 8
  %50 = load i32, ptr %10, align 4
  %51 = insertvalue { ptr, i32 } poison, ptr %49, 0
  %52 = insertvalue { ptr, i32 } %51, i32 %50, 1
  resume { ptr, i32 } %52
}