; Function Attrs: mustprogress uwtable
define internal fastcc noundef zeroext i1 @_ZN4cvc58internal6theory5arith8rewriter12_GLOBAL__N_116evaluateRelationINS0_19RealAlgebraicNumberEEEbNS0_4kind6Kind_tERKT_SB_(i32 noundef %0, ptr noundef nonnull align 8 dereferenceable(32) %1, ptr noundef nonnull align 8 dereferenceable(32) %2) unnamed_addr #3 personality ptr @__gxx_personality_v0 {
  %4 = alloca %"class.cvc5::internal::FatalStream", align 1
  switch i32 %0, label %17 [
    i32 75, label %5
    i32 76, label %7
    i32 5, label %9
    i32 6, label %11
    i32 78, label %13
    i32 77, label %15
  ]

5:                                                ; preds = %3
  %6 = tail call noundef zeroext i1 @_ZNK4cvc58internal19RealAlgebraicNumberltERKS1_(ptr noundef nonnull align 8 dereferenceable(32) %1, ptr noundef nonnull align 8 dereferenceable(32) %2)
  br label %24

7:                                                ; preds = %3
  %8 = tail call noundef zeroext i1 @_ZNK4cvc58internal19RealAlgebraicNumberleERKS1_(ptr noundef nonnull align 8 dereferenceable(32) %1, ptr noundef nonnull align 8 dereferenceable(32) %2)
  br label %24

9:                                                ; preds = %3
  %10 = tail call noundef zeroext i1 @_ZNK4cvc58internal19RealAlgebraicNumbereqERKS1_(ptr noundef nonnull align 8 dereferenceable(32) %1, ptr noundef nonnull align 8 dereferenceable(32) %2)
  br label %24

11:                                               ; preds = %3
  %12 = tail call noundef zeroext i1 @_ZNK4cvc58internal19RealAlgebraicNumberneERKS1_(ptr noundef nonnull align 8 dereferenceable(32) %1, ptr noundef nonnull align 8 dereferenceable(32) %2)
  br label %24

13:                                               ; preds = %3
  %14 = tail call noundef zeroext i1 @_ZNK4cvc58internal19RealAlgebraicNumbergeERKS1_(ptr noundef nonnull align 8 dereferenceable(32) %1, ptr noundef nonnull align 8 dereferenceable(32) %2)
  br label %24

15:                                               ; preds = %3
  %16 = tail call noundef zeroext i1 @_ZNK4cvc58internal19RealAlgebraicNumbergtERKS1_(ptr noundef nonnull align 8 dereferenceable(32) %1, ptr noundef nonnull align 8 dereferenceable(32) %2)
  br label %24

17:                                               ; preds = %3
  call void @llvm.lifetime.start.p0(i64 1, ptr nonnull %4) #17
  call void @_ZN4cvc58internal11FatalStreamC1EPKcS3_i(ptr noundef nonnull align 1 dereferenceable(1) %4, ptr noundef nonnull @__PRETTY_FUNCTION__._ZN4cvc58internal6theory5arith8rewriter12_GLOBAL__N_116evaluateRelationINS0_19RealAlgebraicNumberEEEbNS0_4kind6Kind_tERKT_SB_, ptr noundef nonnull @.str.10, i32 noundef 43)
  %18 = invoke noundef nonnull align 8 dereferenceable(8) ptr @_ZN4cvc58internal11FatalStream6streamEv(ptr noundef nonnull align 1 dereferenceable(1) %4)
          to label %19 unwind label %22

19:                                               ; preds = %17
  %20 = invoke noundef nonnull align 8 dereferenceable(8) ptr @_ZStlsISt11char_traitsIcEERSt13basic_ostreamIcT_ES5_PKc(ptr noundef nonnull align 8 dereferenceable(8) %18, ptr noundef nonnull @.str.11)
          to label %21 unwind label %22

21:                                               ; preds = %19
  call void @_ZN4cvc58internal11FatalStreamD1Ev(ptr noundef nonnull align 1 dereferenceable(1) %4) #18
  unreachable

22:                                               ; preds = %19, %17
  %23 = landingpad { ptr, i32 }
          cleanup
  call void @_ZN4cvc58internal11FatalStreamD1Ev(ptr noundef nonnull align 1 dereferenceable(1) %4) #18
  unreachable

24:                                               ; preds = %15, %13, %11, %9, %7, %5
  %.0 = phi i1 [ %16, %15 ], [ %14, %13 ], [ %12, %11 ], [ %10, %9 ], [ %8, %7 ], [ %6, %5 ]
  ret i1 %.0
}